; ModuleID = '12/158.c'
source_filename = "12/158.c"
target datalayout = "e-m:e-p270:32:32-p271:32:32-p272:64:64-i64:64-f80:128-n8:16:32:64-S128"
target triple = "x86_64-pc-linux-gnu"

@.str = private unnamed_addr constant [4 x i8] c"%lf\00", align 1
@.str.1 = private unnamed_addr constant [4 x i8] c"%d\0A\00", align 1

; Function Attrs: noinline nounwind uwtable
define dso_local i32 @main() #0 {
  %1 = alloca i32, align 4
  %2 = alloca i32, align 4
  %3 = alloca i32, align 4
  %4 = alloca i32, align 4
  %5 = alloca i32, align 4
  %6 = alloca i32, align 4
  %7 = alloca [20 x i32], align 16
  %8 = alloca [15 x double], align 16
  store i32 0, i32* %1, align 4
  %9 = bitcast [20 x i32]* %7 to i8*
  call void @llvm.memset.p0i8.i64(i8* align 16 %9, i8 0, i64 80, i1 false)
  %10 = getelementptr inbounds [15 x double], [15 x double]* %8, i64 0, i64 0
  %11 = call i32 (i8*, ...) @__isoc99_scanf(i8* getelementptr inbounds ([4 x i8], [4 x i8]* @.str, i64 0, i64 0), double* %10)
  store i32 1, i32* %6, align 4
  br label %12

12:                                               ; preds = %70, %0
  %13 = getelementptr inbounds [15 x double], [15 x double]* %8, i64 0, i64 0
  %14 = load double, double* %13, align 16
  %15 = fcmp une double %14, -1.000000e+00
  br i1 %15, label %16, label %73

16:                                               ; preds = %12
  store i32 1, i32* %2, align 4
  br label %17

17:                                               ; preds = %29, %16
  %18 = load i32, i32* %2, align 4
  %19 = sext i32 %18 to i64
  %20 = getelementptr inbounds [15 x double], [15 x double]* %8, i64 0, i64 %19
  %21 = call i32 (i8*, ...) @__isoc99_scanf(i8* getelementptr inbounds ([4 x i8], [4 x i8]* @.str, i64 0, i64 0), double* %20)
  %22 = load i32, i32* %2, align 4
  %23 = sext i32 %22 to i64
  %24 = getelementptr inbounds [15 x double], [15 x double]* %8, i64 0, i64 %23
  %25 = load double, double* %24, align 8
  %26 = fcmp oeq double %25, 0.000000e+00
  br i1 %26, label %27, label %28

27:                                               ; preds = %17
  br label %32

28:                                               ; preds = %17
  br label %29

29:                                               ; preds = %28
  %30 = load i32, i32* %2, align 4
  %31 = add nsw i32 %30, 1
  store i32 %31, i32* %2, align 4
  br label %17

32:                                               ; preds = %27
  store i32 0, i32* %3, align 4
  br label %33

33:                                               ; preds = %64, %32
  %34 = load i32, i32* %3, align 4
  %35 = load i32, i32* %2, align 4
  %36 = icmp slt i32 %34, %35
  br i1 %36, label %37, label %67

37:                                               ; preds = %33
  store i32 0, i32* %4, align 4
  br label %38

38:                                               ; preds = %60, %37
  %39 = load i32, i32* %4, align 4
  %40 = load i32, i32* %2, align 4
  %41 = icmp sle i32 %39, %40
  br i1 %41, label %42, label %63

42:                                               ; preds = %38
  %43 = load i32, i32* %4, align 4
  %44 = sext i32 %43 to i64
  %45 = getelementptr inbounds [15 x double], [15 x double]* %8, i64 0, i64 %44
  %46 = load double, double* %45, align 8
  %47 = load i32, i32* %3, align 4
  %48 = sext i32 %47 to i64
  %49 = getelementptr inbounds [15 x double], [15 x double]* %8, i64 0, i64 %48
  %50 = load double, double* %49, align 8
  %51 = fdiv double %46, %50
  %52 = fcmp oeq double %51, 2.000000e+00
  br i1 %52, label %53, label %59

53:                                               ; preds = %42
  %54 = load i32, i32* %6, align 4
  %55 = sext i32 %54 to i64
  %56 = getelementptr inbounds [20 x i32], [20 x i32]* %7, i64 0, i64 %55
  %57 = load i32, i32* %56, align 4
  %58 = add nsw i32 %57, 1
  store i32 %58, i32* %56, align 4
  br label %59

59:                                               ; preds = %53, %42
  br label %60

60:                                               ; preds = %59
  %61 = load i32, i32* %4, align 4
  %62 = add nsw i32 %61, 1
  store i32 %62, i32* %4, align 4
  br label %38

63:                                               ; preds = %38
  br label %64

64:                                               ; preds = %63
  %65 = load i32, i32* %3, align 4
  %66 = add nsw i32 %65, 1
  store i32 %66, i32* %3, align 4
  br label %33

67:                                               ; preds = %33
  %68 = getelementptr inbounds [15 x double], [15 x double]* %8, i64 0, i64 0
  %69 = call i32 (i8*, ...) @__isoc99_scanf(i8* getelementptr inbounds ([4 x i8], [4 x i8]* @.str, i64 0, i64 0), double* %68)
  br label %70

70:                                               ; preds = %67
  %71 = load i32, i32* %6, align 4
  %72 = add nsw i32 %71, 1
  store i32 %72, i32* %6, align 4
  br label %12

73:                                               ; preds = %12
  store i32 1, i32* %3, align 4
  br label %74

74:                                               ; preds = %84, %73
  %75 = load i32, i32* %3, align 4
  %76 = load i32, i32* %6, align 4
  %77 = icmp slt i32 %75, %76
  br i1 %77, label %78, label %87

78:                                               ; preds = %74
  %79 = load i32, i32* %3, align 4
  %80 = sext i32 %79 to i64
  %81 = getelementptr inbounds [20 x i32], [20 x i32]* %7, i64 0, i64 %80
  %82 = load i32, i32* %81, align 4
  %83 = call i32 (i8*, ...) @printf(i8* getelementptr inbounds ([4 x i8], [4 x i8]* @.str.1, i64 0, i64 0), i32 %82)
  br label %84

84:                                               ; preds = %78
  %85 = load i32, i32* %3, align 4
  %86 = add nsw i32 %85, 1
  store i32 %86, i32* %3, align 4
  br label %74

87:                                               ; preds = %74
  ret i32 0
}

; Function Attrs: argmemonly nounwind willreturn
declare void @llvm.memset.p0i8.i64(i8* nocapture writeonly, i8, i64, i1 immarg) #1

declare dso_local i32 @__isoc99_scanf(i8*, ...) #2

declare dso_local i32 @printf(i8*, ...) #2


!llvm.module.flags = !{!0}
!llvm.ident = !{!1}

!0 = !{i32 1, !"wchar_size", i32 4}
!1 = !{!"clang version 10.0.0-4ubuntu1 "}
